target datalayout = "e-m:e-p270:32:32-p271:32:32-p272:64:64-i64:64-i128:128-f80:128-n8:16:32:64-S128"
target triple = "x86_64-pc-linux-gnu"

%"class.grpc_core::PolymorphicRefCount" = type { ptr }
%"class.grpc_core::RefCountedPtr.209" = type { ptr }
%"class.grpc_core::DualRefCounted" = type { %"class.grpc_core::PolymorphicRefCount", %"struct.std::atomic.210" }
%"struct.std::atomic.210" = type { %"struct.std::__atomic_base.211" }
%"struct.std::__atomic_base.211" = type { i64 }
%"class.grpc_core::RefCountedPtr.212" = type { ptr }
%"class.grpc_core::DelegatingSubchannel" = type { %"class.grpc_core::SubchannelInterface", %"class.grpc_core::RefCountedPtr.212" }
%"class.grpc_core::SubchannelInterface" = type { %"class.grpc_core::DualRefCounted" }
%"class.grpc_core::(anonymous namespace)::XdsOverrideHostLb::Picker::SubchannelConnectionRequester" = type { %"class.grpc_core::RefCountedPtr.209", %struct.grpc_closure }
%struct.grpc_closure = type { %union.anon.623, ptr, ptr, %union.anon.624 }
%union.anon.623 = type { ptr }
%union.anon.624 = type { i64 }
%class.anon.630 = type { ptr }

; Function Attrs: mustprogress nounwind uwtable
define linkonce_odr void @_ZNK9grpc_core11UnrefDeleteclINS_19SubchannelInterfaceEEEvPT_(ptr noundef nonnull align 1 dereferenceable(1) %0, ptr noundef %1) #5 comdat align 2 {
  %3 = alloca ptr, align 8
  %4 = alloca ptr, align 8
  store ptr %0, ptr %3, align 8, !tbaa !139
  store ptr %1, ptr %4, align 8, !tbaa !458
  %5 = load ptr, ptr %4, align 8, !tbaa !458
  %6 = icmp eq ptr %5, null
  br i1 %6, label %11, label %7

7:                                                ; preds = %2
  %8 = load ptr, ptr %5, align 8, !tbaa !99
  %9 = getelementptr inbounds ptr, ptr %8, i64 1
  %10 = load ptr, ptr %9, align 8
  call void %10(ptr noundef nonnull align 8 dereferenceable(16) %5) #3
  br label %11

11:                                               ; preds = %7, %2
  ret void
}

; Function Attrs: alwaysinline mustprogress nounwind uwtable
define linkonce_odr noundef i64 @_ZNSt13__atomic_baseImE9fetch_subEmSt12memory_order(ptr noundef nonnull align 8 dereferenceable(8) %0, i64 noundef %1, i32 noundef %2) #14 comdat align 2 {
  %4 = alloca ptr, align 8
  %5 = alloca i64, align 8
  %6 = alloca i32, align 4
  %7 = alloca i64, align 8
  %8 = alloca i64, align 8
  store ptr %0, ptr %4, align 8, !tbaa !456
  store i64 %1, ptr %5, align 8, !tbaa !50
  store i32 %2, ptr %6, align 4, !tbaa !118
  %9 = load ptr, ptr %4, align 8
  %10 = getelementptr inbounds nuw %"struct.std::__atomic_base.211", ptr %9, i32 0, i32 0
  %11 = load i32, ptr %6, align 4, !tbaa !118
  %12 = load i64, ptr %5, align 8, !tbaa !50
  store i64 %12, ptr %7, align 8, !tbaa !50
  switch i32 %11, label %13 [
    i32 1, label %16
    i32 2, label %16
    i32 3, label %19
    i32 4, label %22
    i32 5, label %25
  ]

13:                                               ; preds = %3
  %14 = load i64, ptr %7, align 8
  %15 = atomicrmw sub ptr %10, i64 %14 monotonic, align 8
  store i64 %15, ptr %8, align 8
  br label %28

16:                                               ; preds = %3, %3
  %17 = load i64, ptr %7, align 8
  %18 = atomicrmw sub ptr %10, i64 %17 acquire, align 8
  store i64 %18, ptr %8, align 8
  br label %28

19:                                               ; preds = %3
  %20 = load i64, ptr %7, align 8
  %21 = atomicrmw sub ptr %10, i64 %20 release, align 8
  store i64 %21, ptr %8, align 8
  br label %28

22:                                               ; preds = %3
  %23 = load i64, ptr %7, align 8
  %24 = atomicrmw sub ptr %10, i64 %23 acq_rel, align 8
  store i64 %24, ptr %8, align 8
  br label %28

25:                                               ; preds = %3
  %26 = load i64, ptr %7, align 8
  %27 = atomicrmw sub ptr %10, i64 %26 seq_cst, align 8
  store i64 %27, ptr %8, align 8
  br label %28

28:                                               ; preds = %25, %22, %19, %16, %13
  %29 = load i64, ptr %8, align 8, !tbaa !50
  ret i64 %29
}

; Function Attrs: mustprogress uwtable
define linkonce_odr void @_ZN9grpc_core14DualRefCountedINS_19SubchannelInterfaceENS_19PolymorphicRefCountENS_11UnrefDeleteEE9WeakUnrefEv(ptr noundef nonnull align 8 dereferenceable(16) %0) #4 comdat align 2 {
  %2 = alloca ptr, align 8
  %3 = alloca i64, align 8
  store ptr %0, ptr %2, align 8, !tbaa !454
  %4 = load ptr, ptr %2, align 8
  call void @llvm.lifetime.start.p0(i64 8, ptr %3) #3
  %5 = getelementptr inbounds nuw %"class.grpc_core::DualRefCounted", ptr %4, i32 0, i32 1
  %6 = call noundef i64 @_ZN9grpc_core14DualRefCountedINS_19SubchannelInterfaceENS_19PolymorphicRefCountENS_11UnrefDeleteEE11MakeRefPairEjj(i32 noundef 0, i32 noundef 1)
  %7 = call noundef i64 @_ZNSt13__atomic_baseImE9fetch_subEmSt12memory_order(ptr noundef nonnull align 8 dereferenceable(8) %5, i64 noundef %6, i32 noundef 4) #3
  store i64 %7, ptr %3, align 8, !tbaa !50
  %8 = load i64, ptr %3, align 8, !tbaa !50
  %9 = call noundef i64 @_ZN9grpc_core14DualRefCountedINS_19SubchannelInterfaceENS_19PolymorphicRefCountENS_11UnrefDeleteEE11MakeRefPairEjj(i32 noundef 0, i32 noundef 1)
  %10 = icmp eq i64 %8, %9
  %11 = zext i1 %10 to i64
  %12 = call i64 @llvm.expect.i64(i64 %11, i64 0)
  %13 = icmp ne i64 %12, 0
  br i1 %13, label %14, label %15

14:                                               ; preds = %1
  call void @_ZNK9grpc_core11UnrefDeleteclINS_19SubchannelInterfaceEEEvPT_(ptr noundef nonnull align 1 dereferenceable(1) %4, ptr noundef %4)
  br label %15

15:                                               ; preds = %14, %1
  call void @llvm.lifetime.end.p0(i64 8, ptr %3) #3
  ret void
}

; Function Attrs: mustprogress nounwind uwtable
define linkonce_odr noundef i32 @_ZN9grpc_core14DualRefCountedINS_19SubchannelInterfaceENS_19PolymorphicRefCountENS_11UnrefDeleteEE13GetStrongRefsEm(i64 noundef %0) #5 comdat align 2 {
  %2 = alloca i64, align 8
  store i64 %0, ptr %2, align 8, !tbaa !50
  %3 = load i64, ptr %2, align 8, !tbaa !50
  %4 = lshr i64 %3, 32
  %5 = trunc i64 %4 to i32
  ret i32 %5
}

; Function Attrs: alwaysinline mustprogress nounwind uwtable
define linkonce_odr noundef i64 @_ZNSt13__atomic_baseImE9fetch_addEmSt12memory_order(ptr noundef nonnull align 8 dereferenceable(8) %0, i64 noundef %1, i32 noundef %2) #14 comdat align 2 {
  %4 = alloca ptr, align 8
  %5 = alloca i64, align 8
  %6 = alloca i32, align 4
  %7 = alloca i64, align 8
  %8 = alloca i64, align 8
  store ptr %0, ptr %4, align 8, !tbaa !456
  store i64 %1, ptr %5, align 8, !tbaa !50
  store i32 %2, ptr %6, align 4, !tbaa !118
  %9 = load ptr, ptr %4, align 8
  %10 = getelementptr inbounds nuw %"struct.std::__atomic_base.211", ptr %9, i32 0, i32 0
  %11 = load i32, ptr %6, align 4, !tbaa !118
  %12 = load i64, ptr %5, align 8, !tbaa !50
  store i64 %12, ptr %7, align 8, !tbaa !50
  switch i32 %11, label %13 [
    i32 1, label %16
    i32 2, label %16
    i32 3, label %19
    i32 4, label %22
    i32 5, label %25
  ]

13:                                               ; preds = %3
  %14 = load i64, ptr %7, align 8
  %15 = atomicrmw add ptr %10, i64 %14 monotonic, align 8
  store i64 %15, ptr %8, align 8
  br label %28

16:                                               ; preds = %3, %3
  %17 = load i64, ptr %7, align 8
  %18 = atomicrmw add ptr %10, i64 %17 acquire, align 8
  store i64 %18, ptr %8, align 8
  br label %28

19:                                               ; preds = %3
  %20 = load i64, ptr %7, align 8
  %21 = atomicrmw add ptr %10, i64 %20 release, align 8
  store i64 %21, ptr %8, align 8
  br label %28

22:                                               ; preds = %3
  %23 = load i64, ptr %7, align 8
  %24 = atomicrmw add ptr %10, i64 %23 acq_rel, align 8
  store i64 %24, ptr %8, align 8
  br label %28

25:                                               ; preds = %3
  %26 = load i64, ptr %7, align 8
  %27 = atomicrmw add ptr %10, i64 %26 seq_cst, align 8
  store i64 %27, ptr %8, align 8
  br label %28

28:                                               ; preds = %25, %22, %19, %16, %13
  %29 = load i64, ptr %8, align 8, !tbaa !50
  ret i64 %29
}

; Function Attrs: mustprogress nounwind uwtable
define linkonce_odr noundef i64 @_ZN9grpc_core14DualRefCountedINS_19SubchannelInterfaceENS_19PolymorphicRefCountENS_11UnrefDeleteEE11MakeRefPairEjj(i32 noundef %0, i32 noundef %1) #5 comdat align 2 {
  %3 = alloca i32, align 4
  %4 = alloca i32, align 4
  store i32 %0, ptr %3, align 4, !tbaa !330
  store i32 %1, ptr %4, align 4, !tbaa !330
  %5 = load i32, ptr %3, align 4, !tbaa !330
  %6 = zext i32 %5 to i64
  %7 = shl i64 %6, 32
  %8 = load i32, ptr %4, align 4, !tbaa !330
  %9 = zext i32 %8 to i64
  %10 = add i64 %7, %9
  ret i64 %10
}

; Function Attrs: mustprogress uwtable
define linkonce_odr void @_ZN9grpc_core14DualRefCountedINS_19SubchannelInterfaceENS_19PolymorphicRefCountENS_11UnrefDeleteEE5UnrefEv(ptr noundef nonnull align 8 dereferenceable(16) %0) #4 comdat align 2 {
  %2 = alloca ptr, align 8
  %3 = alloca i64, align 8
  %4 = alloca i32, align 4
  store ptr %0, ptr %2, align 8, !tbaa !454
  %5 = load ptr, ptr %2, align 8
  call void @llvm.lifetime.start.p0(i64 8, ptr %3) #3
  %6 = getelementptr inbounds nuw %"class.grpc_core::DualRefCounted", ptr %5, i32 0, i32 1
  %7 = call noundef i64 @_ZN9grpc_core14DualRefCountedINS_19SubchannelInterfaceENS_19PolymorphicRefCountENS_11UnrefDeleteEE11MakeRefPairEjj(i32 noundef -1, i32 noundef 1)
  %8 = call noundef i64 @_ZNSt13__atomic_baseImE9fetch_addEmSt12memory_order(ptr noundef nonnull align 8 dereferenceable(8) %6, i64 noundef %7, i32 noundef 4) #3
  store i64 %8, ptr %3, align 8, !tbaa !50
  call void @llvm.lifetime.start.p0(i64 4, ptr %4) #3
  %9 = load i64, ptr %3, align 8, !tbaa !50
  %10 = call noundef i32 @_ZN9grpc_core14DualRefCountedINS_19SubchannelInterfaceENS_19PolymorphicRefCountENS_11UnrefDeleteEE13GetStrongRefsEm(i64 noundef %9)
  store i32 %10, ptr %4, align 4, !tbaa !330
  %11 = load i32, ptr %4, align 4, !tbaa !330
  %12 = icmp eq i32 %11, 1
  %13 = zext i1 %12 to i64
  %14 = call i64 @llvm.expect.i64(i64 %13, i64 0)
  %15 = icmp ne i64 %14, 0
  br i1 %15, label %16, label %20

16:                                               ; preds = %1
  %17 = load ptr, ptr %5, align 8, !tbaa !99
  %18 = getelementptr inbounds ptr, ptr %17, i64 2
  %19 = load ptr, ptr %18, align 8
  call void %19(ptr noundef nonnull align 8 dereferenceable(16) %5)
  br label %20

20:                                               ; preds = %16, %1
  call void @_ZN9grpc_core14DualRefCountedINS_19SubchannelInterfaceENS_19PolymorphicRefCountENS_11UnrefDeleteEE9WeakUnrefEv(ptr noundef nonnull align 8 dereferenceable(16) %5)
  call void @llvm.lifetime.end.p0(i64 4, ptr %4) #3
  call void @llvm.lifetime.end.p0(i64 8, ptr %3) #3
  ret void
}

; Function Attrs: mustprogress nounwind uwtable
define internal void @_ZN9grpc_core13RefCountedPtrINS_12_GLOBAL__N_117XdsOverrideHostLb17SubchannelWrapperEED2Ev(ptr noundef nonnull align 8 dereferenceable(8) %0) unnamed_addr #5 align 2 personality ptr @__gxx_personality_v0 {
  %2 = alloca ptr, align 8
  store ptr %0, ptr %2, align 8, !tbaa !449
  %3 = load ptr, ptr %2, align 8
  %4 = getelementptr inbounds nuw %"class.grpc_core::RefCountedPtr.209", ptr %3, i32 0, i32 0
  %5 = load ptr, ptr %4, align 8, !tbaa !451
  %6 = icmp ne ptr %5, null
  br i1 %6, label %7, label %11

7:                                                ; preds = %1
  %8 = getelementptr inbounds nuw %"class.grpc_core::RefCountedPtr.209", ptr %3, i32 0, i32 0
  %9 = load ptr, ptr %8, align 8, !tbaa !451
  invoke void @_ZN9grpc_core14DualRefCountedINS_19SubchannelInterfaceENS_19PolymorphicRefCountENS_11UnrefDeleteEE5UnrefEv(ptr noundef nonnull align 8 dereferenceable(16) %9)
          to label %10 unwind label %12

10:                                               ; preds = %7
  br label %11

11:                                               ; preds = %10, %1
  ret void

12:                                               ; preds = %7
  %13 = landingpad { ptr, i32 }
          catch ptr null
  %14 = extractvalue { ptr, i32 } %13, 0
  call void @__clang_call_terminate(ptr %14) #33
  unreachable
}

; Function Attrs: mustprogress nounwind uwtable
define linkonce_odr noundef ptr @_ZNK9grpc_core13RefCountedPtrINS_19SubchannelInterfaceEEptEv(ptr noundef nonnull align 8 dereferenceable(8) %0) #5 comdat align 2 {
  %2 = alloca ptr, align 8
  store ptr %0, ptr %2, align 8, !tbaa !606
  %3 = load ptr, ptr %2, align 8
  %4 = getelementptr inbounds nuw %"class.grpc_core::RefCountedPtr.212", ptr %3, i32 0, i32 0
  %5 = load ptr, ptr %4, align 8, !tbaa !608
  ret ptr %5
}

; Function Attrs: inlinehint mustprogress nounwind uwtable
define internal void @_ZN9grpc_core12_GLOBAL__N_117XdsOverrideHostLb6Picker29SubchannelConnectionRequesterD2Ev(ptr noundef nonnull align 8 dereferenceable(40) %0) unnamed_addr #12 align 2 {
  %2 = alloca ptr, align 8
  store ptr %0, ptr %2, align 8, !tbaa !1298
  %3 = load ptr, ptr %2, align 8
  %4 = getelementptr inbounds nuw %"class.grpc_core::(anonymous namespace)::XdsOverrideHostLb::Picker::SubchannelConnectionRequester", ptr %3, i32 0, i32 0
  call void @_ZN9grpc_core13RefCountedPtrINS_12_GLOBAL__N_117XdsOverrideHostLb17SubchannelWrapperEED2Ev(ptr noundef nonnull align 8 dereferenceable(8) %4) #3
  ret void
}

; Function Attrs: mustprogress uwtable
define linkonce_odr void @_ZN9grpc_core20DelegatingSubchannel17RequestConnectionEv(ptr noundef nonnull align 8 dereferenceable(24) %0) unnamed_addr #4 comdat align 2 {
  %2 = alloca ptr, align 8
  store ptr %0, ptr %2, align 8, !tbaa !1163
  %3 = load ptr, ptr %2, align 8
  %4 = getelementptr inbounds nuw %"class.grpc_core::DelegatingSubchannel", ptr %3, i32 0, i32 1
  %5 = call noundef ptr @_ZNK9grpc_core13RefCountedPtrINS_19SubchannelInterfaceEEptEv(ptr noundef nonnull align 8 dereferenceable(8) %4)
  %6 = load ptr, ptr %5, align 8, !tbaa !99
  %7 = getelementptr inbounds ptr, ptr %6, i64 5
  %8 = load ptr, ptr %7, align 8
  call void %8(ptr noundef nonnull align 8 dereferenceable(16) %5)
  ret void
}

; Function Attrs: mustprogress nounwind uwtable
define internal noundef ptr @_ZNK9grpc_core13RefCountedPtrINS_12_GLOBAL__N_117XdsOverrideHostLb17SubchannelWrapperEEptEv(ptr noundef nonnull align 8 dereferenceable(8) %0) #5 align 2 {
  %2 = alloca ptr, align 8
  store ptr %0, ptr %2, align 8, !tbaa !449
  %3 = load ptr, ptr %2, align 8
  %4 = getelementptr inbounds nuw %"class.grpc_core::RefCountedPtr.209", ptr %3, i32 0, i32 0
  %5 = load ptr, ptr %4, align 8, !tbaa !451
  ret ptr %5
}

; Function Attrs: inlinehint mustprogress uwtable
define internal void @_ZZN9grpc_core12_GLOBAL__N_117XdsOverrideHostLb6Picker29SubchannelConnectionRequester12RunInExecCtxEPvN4absl12lts_202407226StatusEENKUlvE_clEv(ptr noundef nonnull align 8 dereferenceable(8) %0) #7 align 2 {
  %2 = alloca ptr, align 8
  store ptr %0, ptr %2, align 8, !tbaa !80
  %3 = load ptr, ptr %2, align 8
  %4 = getelementptr inbounds nuw %class.anon.630, ptr %3, i32 0, i32 0
  %5 = load ptr, ptr %4, align 8, !tbaa !1352
  %6 = getelementptr inbounds nuw %"class.grpc_core::(anonymous namespace)::XdsOverrideHostLb::Picker::SubchannelConnectionRequester", ptr %5, i32 0, i32 0
  %7 = call noundef ptr @_ZNK9grpc_core13RefCountedPtrINS_12_GLOBAL__N_117XdsOverrideHostLb17SubchannelWrapperEEptEv(ptr noundef nonnull align 8 dereferenceable(8) %6)
  call void @_ZN9grpc_core20DelegatingSubchannel17RequestConnectionEv(ptr noundef nonnull align 8 dereferenceable(24) %7)
  %8 = getelementptr inbounds nuw %class.anon.630, ptr %3, i32 0, i32 0
  %9 = load ptr, ptr %8, align 8, !tbaa !1352
  %10 = icmp eq ptr %9, null
  br i1 %10, label %12, label %11

11:                                               ; preds = %1
  call void @_ZN9grpc_core12_GLOBAL__N_117XdsOverrideHostLb6Picker29SubchannelConnectionRequesterD2Ev(ptr noundef nonnull align 8 dereferenceable(40) %9) #3
  call void @_ZdlPvm(ptr noundef %9, i64 noundef 40) #34
  br label %12

12:                                               ; preds = %11, %1
  ret void
}

; Function Attrs: mustprogress uwtable
define internal void @_ZSt13__invoke_implIvRZN9grpc_core12_GLOBAL__N_117XdsOverrideHostLb6Picker29SubchannelConnectionRequester12RunInExecCtxEPvN4absl12lts_202407226StatusEEUlvE_JEET_St14__invoke_otherOT0_DpOT1_(ptr noundef nonnull align 8 dereferenceable(8) %0) #4 {
  %2 = alloca ptr, align 8
  store ptr %0, ptr %2, align 8, !tbaa !80
  %3 = load ptr, ptr %2, align 8, !tbaa !80
  call void @_ZZN9grpc_core12_GLOBAL__N_117XdsOverrideHostLb6Picker29SubchannelConnectionRequester12RunInExecCtxEPvN4absl12lts_202407226StatusEENKUlvE_clEv(ptr noundef nonnull align 8 dereferenceable(8) %3)
  ret void
}

; Function Attrs: mustprogress uwtable
define internal void @_ZSt8__invokeIRZN9grpc_core12_GLOBAL__N_117XdsOverrideHostLb6Picker29SubchannelConnectionRequester12RunInExecCtxEPvN4absl12lts_202407226StatusEEUlvE_JEENSt15__invoke_resultIT_JDpT0_EE4typeEOSC_DpOSD_(ptr noundef nonnull align 8 dereferenceable(8) %0) #4 {
  %2 = alloca ptr, align 8
  store ptr %0, ptr %2, align 8, !tbaa !80
  %3 = load ptr, ptr %2, align 8, !tbaa !80
  call void @_ZSt13__invoke_implIvRZN9grpc_core12_GLOBAL__N_117XdsOverrideHostLb6Picker29SubchannelConnectionRequester12RunInExecCtxEPvN4absl12lts_202407226StatusEEUlvE_JEET_St14__invoke_otherOT0_DpOT1_(ptr noundef nonnull align 8 dereferenceable(8) %3)
  ret void
}

; Function Attrs: inlinehint mustprogress uwtable
define internal void @_ZSt6invokeIRZN9grpc_core12_GLOBAL__N_117XdsOverrideHostLb6Picker29SubchannelConnectionRequester12RunInExecCtxEPvN4absl12lts_202407226StatusEEUlvE_JEENSt13invoke_resultIT_JDpT0_EE4typeEOSC_DpOSD_(ptr noundef nonnull align 8 dereferenceable(8) %0) #7 {
  %2 = alloca ptr, align 8
  store ptr %0, ptr %2, align 8, !tbaa !80
  %3 = load ptr, ptr %2, align 8, !tbaa !80
  call void @_ZSt8__invokeIRZN9grpc_core12_GLOBAL__N_117XdsOverrideHostLb6Picker29SubchannelConnectionRequester12RunInExecCtxEPvN4absl12lts_202407226StatusEEUlvE_JEENSt15__invoke_resultIT_JDpT0_EE4typeEOSC_DpOSD_(ptr noundef nonnull align 8 dereferenceable(8) %3)
  ret void
}

; Function Attrs: mustprogress nounwind uwtable
define internal noundef ptr @_ZSt7launderIZN9grpc_core12_GLOBAL__N_117XdsOverrideHostLb6Picker29SubchannelConnectionRequester12RunInExecCtxEPvN4absl12lts_202407226StatusEEUlvE_EPT_SB_(ptr noundef %0) #5 {
  %2 = alloca ptr, align 8
  store ptr %0, ptr %2, align 8, !tbaa !80
  %3 = load ptr, ptr %2, align 8, !tbaa !80
  ret ptr %3
}

; Function Attrs: mustprogress uwtable
define internal void @_ZN4absl12lts_2024072222internal_any_invocable7InvokeRIvRZN9grpc_core12_GLOBAL__N_117XdsOverrideHostLb6Picker29SubchannelConnectionRequester12RunInExecCtxEPvNS0_6StatusEEUlvE_JEvEEvOT0_DpOT1_(ptr noundef nonnull align 8 dereferenceable(8) %0) #4 {
  %2 = alloca ptr, align 8
  store ptr %0, ptr %2, align 8, !tbaa !80
  %3 = load ptr, ptr %2, align 8, !tbaa !80
  call void @_ZSt6invokeIRZN9grpc_core12_GLOBAL__N_117XdsOverrideHostLb6Picker29SubchannelConnectionRequester12RunInExecCtxEPvN4absl12lts_202407226StatusEEUlvE_JEENSt13invoke_resultIT_JDpT0_EE4typeEOSC_DpOSD_(ptr noundef nonnull align 8 dereferenceable(8) %3)
  ret void
}

; Function Attrs: mustprogress nounwind uwtable
define internal noundef nonnull align 8 dereferenceable(8) ptr @_ZN4absl12lts_2024072222internal_any_invocable20ObjectInLocalStorageIZN9grpc_core12_GLOBAL__N_117XdsOverrideHostLb6Picker29SubchannelConnectionRequester12RunInExecCtxEPvNS0_6StatusEEUlvE_EERT_PNS1_15TypeErasedStateE(ptr noundef %0) #5 {
  %2 = alloca ptr, align 8
  store ptr %0, ptr %2, align 8, !tbaa !1013
  %3 = load ptr, ptr %2, align 8, !tbaa !1013
  %4 = call noundef ptr @_ZSt7launderIZN9grpc_core12_GLOBAL__N_117XdsOverrideHostLb6Picker29SubchannelConnectionRequester12RunInExecCtxEPvN4absl12lts_202407226StatusEEUlvE_EPT_SB_(ptr noundef %3) #3
  ret ptr %4
}

; Function Attrs: mustprogress uwtable
define internal void @_ZN4absl12lts_2024072222internal_any_invocable12LocalInvokerILb0EvRZN9grpc_core12_GLOBAL__N_117XdsOverrideHostLb6Picker29SubchannelConnectionRequester12RunInExecCtxEPvNS0_6StatusEEUlvE_JEEET0_PNS1_15TypeErasedStateEDpNS1_18ForwardedParameterIT2_E4typeE(ptr noundef %0) #4 {
  %2 = alloca ptr, align 8
  %3 = alloca ptr, align 8
  store ptr %0, ptr %2, align 8, !tbaa !1013
  call void @llvm.lifetime.start.p0(i64 8, ptr %3) #3
  %4 = load ptr, ptr %2, align 8, !tbaa !1013
  %5 = call noundef nonnull align 8 dereferenceable(8) ptr @_ZN4absl12lts_2024072222internal_any_invocable20ObjectInLocalStorageIZN9grpc_core12_GLOBAL__N_117XdsOverrideHostLb6Picker29SubchannelConnectionRequester12RunInExecCtxEPvNS0_6StatusEEUlvE_EERT_PNS1_15TypeErasedStateE(ptr noundef %4)
  store ptr %5, ptr %3, align 8, !tbaa !80
  %6 = load ptr, ptr %3, align 8, !tbaa !80
  call void @_ZN4absl12lts_2024072222internal_any_invocable7InvokeRIvRZN9grpc_core12_GLOBAL__N_117XdsOverrideHostLb6Picker29SubchannelConnectionRequester12RunInExecCtxEPvNS0_6StatusEEUlvE_JEvEEvOT0_DpOT1_(ptr noundef nonnull align 8 dereferenceable(8) %6)
  call void @llvm.lifetime.end.p0(i64 8, ptr %3) #3
  ret void
}