; Function Attrs: mustprogress uwtable
define internal void @_ZN4absl12lts_2024072222internal_any_invocable12LocalInvokerILb0EvRZN9grpc_core12_GLOBAL__N_117XdsOverrideHostLb6Picker29SubchannelConnectionRequester12RunInExecCtxEPvNS0_6StatusEEUlvE_JEEET0_PNS1_15TypeErasedStateEDpNS1_18ForwardedParameterIT2_E4typeE(ptr noundef readonly captures(none) %0) #3 personality ptr @__gxx_personality_v0 {
  %2 = load ptr, ptr %0, align 8, !tbaa !593
  %.val.i.i.i.i.i = load ptr, ptr %2, align 8, !tbaa !203
  %3 = getelementptr inbounds nuw i8, ptr %.val.i.i.i.i.i, i64 16
  %4 = load ptr, ptr %3, align 8, !tbaa !278
  %5 = load ptr, ptr %4, align 8, !tbaa !6
  %6 = getelementptr inbounds nuw i8, ptr %5, i64 40
  %7 = load ptr, ptr %6, align 8
  tail call void %7(ptr noundef nonnull align 8 dereferenceable(16) %4)
  %8 = load ptr, ptr %0, align 8, !tbaa !593
  %9 = icmp eq ptr %8, null
  br i1 %9, label %_ZN4absl12lts_2024072222internal_any_invocable7InvokeRIvRZN9grpc_core12_GLOBAL__N_117XdsOverrideHostLb6Picker29SubchannelConnectionRequester12RunInExecCtxEPvNS0_6StatusEEUlvE_JEvEEvOT0_DpOT1_.exit, label %10

10:                                               ; preds = %1
  %.val1.i.i.i.i.i = load ptr, ptr %8, align 8, !tbaa !203
  %.not.i.i.i.i.i.i.i = icmp eq ptr %.val1.i.i.i.i.i, null
  br i1 %.not.i.i.i.i.i.i.i, label %_ZN9grpc_core12_GLOBAL__N_117XdsOverrideHostLb6Picker29SubchannelConnectionRequesterD2Ev.exit.i.i.i.i.i, label %11

11:                                               ; preds = %10
  %12 = getelementptr inbounds nuw i8, ptr %.val1.i.i.i.i.i, i64 8
  %13 = atomicrmw add ptr %12, i64 -4294967295 acq_rel, align 8
  %.mask.i.i.i.i.i.i.i.i = and i64 %13, -4294967296
  %14 = icmp eq i64 %.mask.i.i.i.i.i.i.i.i, 4294967296
  br i1 %14, label %15, label %.noexc.i.i.i.i.i.i.i, !prof !47

15:                                               ; preds = %11
  %16 = load ptr, ptr %.val1.i.i.i.i.i, align 8, !tbaa !6
  %17 = getelementptr inbounds nuw i8, ptr %16, i64 16
  %18 = load ptr, ptr %17, align 8
  invoke void %18(ptr noundef nonnull align 8 dereferenceable(16) %.val1.i.i.i.i.i)
          to label %.noexc.i.i.i.i.i.i.i unwind label %25

.noexc.i.i.i.i.i.i.i:                             ; preds = %15, %11
  %19 = atomicrmw sub ptr %12, i64 1 acq_rel, align 8
  %20 = icmp eq i64 %19, 1
  br i1 %20, label %21, label %_ZN9grpc_core12_GLOBAL__N_117XdsOverrideHostLb6Picker29SubchannelConnectionRequesterD2Ev.exit.i.i.i.i.i, !prof !47

21:                                               ; preds = %.noexc.i.i.i.i.i.i.i
  %22 = load ptr, ptr %.val1.i.i.i.i.i, align 8, !tbaa !6
  %23 = getelementptr inbounds nuw i8, ptr %22, i64 8
  %24 = load ptr, ptr %23, align 8
  tail call void %24(ptr noundef nonnull align 8 dereferenceable(16) %.val1.i.i.i.i.i) #40
  br label %_ZN9grpc_core12_GLOBAL__N_117XdsOverrideHostLb6Picker29SubchannelConnectionRequesterD2Ev.exit.i.i.i.i.i

25:                                               ; preds = %15
  %26 = landingpad { ptr, i32 }
          catch ptr null
  %27 = extractvalue { ptr, i32 } %26, 0
  tail call void @__clang_call_terminate(ptr %27) #42
  unreachable

_ZN9grpc_core12_GLOBAL__N_117XdsOverrideHostLb6Picker29SubchannelConnectionRequesterD2Ev.exit.i.i.i.i.i: ; preds = %21, %.noexc.i.i.i.i.i.i.i, %10
  tail call void @_ZdlPvm(ptr noundef nonnull %8, i64 noundef 40) #43
  br label %_ZN4absl12lts_2024072222internal_any_invocable7InvokeRIvRZN9grpc_core12_GLOBAL__N_117XdsOverrideHostLb6Picker29SubchannelConnectionRequester12RunInExecCtxEPvNS0_6StatusEEUlvE_JEvEEvOT0_DpOT1_.exit

_ZN4absl12lts_2024072222internal_any_invocable7InvokeRIvRZN9grpc_core12_GLOBAL__N_117XdsOverrideHostLb6Picker29SubchannelConnectionRequester12RunInExecCtxEPvNS0_6StatusEEUlvE_JEvEEvOT0_DpOT1_.exit: ; preds = %1, %_ZN9grpc_core12_GLOBAL__N_117XdsOverrideHostLb6Picker29SubchannelConnectionRequesterD2Ev.exit.i.i.i.i.i
  ret void
}